Archive member included because of file (symbol)

contiki-micaz.a(broadcast.o)  attilio_send.co (broadcast_open)
contiki-micaz.a(abc.o)        contiki-micaz.a(broadcast.o) (abc_open)
contiki-micaz.a(channel.o)    contiki-micaz.a(abc.o) (channel_open)
contiki-micaz.a(list.o)       contiki-micaz.a(channel.o) (list_init)
contiki-micaz.a(etimer.o)     attilio_send.co (etimer_set)
contiki-micaz.a(packetbuf.o)  contiki-micaz.a(broadcast.o) (packetbuf_addrs)
contiki-micaz.a(contiki-micaz-m)
                              /usr/lib/gcc/avr/4.5.3/../../../avr/lib/avr51/crtm128.o (main)
contiki-micaz.a(init-net.o)   contiki-micaz.a(contiki-micaz-m) (init_net)
contiki-micaz.a(node-id.o)    contiki-micaz.a(contiki-micaz-m) (node_id_restore)
contiki-micaz.a(clock.o)      contiki-micaz.a(contiki-micaz-m) (clock_init)
contiki-micaz.a(ds2401.o)     contiki-micaz.a(contiki-micaz-m) (ds2401_init)
contiki-micaz.a(packages.o)   attilio_send.co (send_start_pkg_broad)
contiki-micaz.a(eeprom.o)     contiki-micaz.a(node-id.o) (eeprom_write)
contiki-micaz.a(leds.o)       contiki-micaz.a(contiki-micaz-m) (leds_init)
contiki-micaz.a(rimeaddr.o)   contiki-micaz.a(broadcast.o) (rimeaddr_copy)
contiki-micaz.a(rime.o)       contiki-micaz.a(abc.o) (rime_output)
contiki-micaz.a(rimestats.o)  contiki-micaz.a(rime.o) (rimestats)
contiki-micaz.a(announcement.o)
                              contiki-micaz.a(rime.o) (announcement_init)
contiki-micaz.a(broadcast-annou)
                              contiki-micaz.a(rime.o) (broadcast_announcement_init)
contiki-micaz.a(chameleon.o)  contiki-micaz.a(rime.o) (chameleon_init)
contiki-micaz.a(chameleon-bitop)
                              contiki-micaz.a(chameleon.o) (chameleon_bitopt)
contiki-micaz.a(cxmac.o)      contiki-micaz.a(init-net.o) (cxmac_driver)
contiki-micaz.a(nullmac.o)    contiki-micaz.a(init-net.o) (nullmac_driver)
contiki-micaz.a(mac.o)        contiki-micaz.a(cxmac.o) (mac_call_sent_callback)
contiki-micaz.a(framer-802154.o)
                              contiki-micaz.a(cxmac.o) (framer_802154)
contiki-micaz.a(process.o)    contiki-micaz.a(etimer.o) (process_current)
contiki-micaz.a(autostart.o)  contiki-micaz.a(contiki-micaz-m) (autostart_start)
contiki-micaz.a(compower.o)   contiki-micaz.a(cxmac.o) (compower_idle_activity)
contiki-micaz.a(memb.o)       contiki-micaz.a(cxmac.o) (memb_init)
contiki-micaz.a(timer.o)      contiki-micaz.a(etimer.o) (timer_set)
contiki-micaz.a(ctimer.o)     contiki-micaz.a(contiki-micaz-m) (ctimer_init)
contiki-micaz.a(energest.o)   contiki-micaz.a(compower.o) (energest_type_time)
contiki-micaz.a(rtimer.o)     contiki-micaz.a(contiki-micaz-m) (rtimer_init)
contiki-micaz.a(random.o)     contiki-micaz.a(contiki-micaz-m) (random_init)
contiki-micaz.a(queuebuf.o)   contiki-micaz.a(rime.o) (queuebuf_init)
contiki-micaz.a(rs232.o)      contiki-micaz.a(contiki-micaz-m) (rs232_init)
contiki-micaz.a(leds-arch.o)  contiki-micaz.a(leds.o) (leds_arch_init)
contiki-micaz.a(cc2420.o)     contiki-micaz.a(init-net.o) (cc2420_set_channel)
contiki-micaz.a(cc2420-arch.o)
                              contiki-micaz.a(cc2420.o) (cc2420_arch_init)
contiki-micaz.a(rtimer-arch.o)
                              contiki-micaz.a(rtimer.o) (rtimer_arch_init)
contiki-micaz.a(watchdog.o)   contiki-micaz.a(cxmac.o) (watchdog_start)
contiki-micaz.a(frame802154.o)
                              contiki-micaz.a(framer-802154.o) (frame802154_hdrlen)
contiki-micaz.a(spi.o)        contiki-micaz.a(cc2420-arch.o) (spi_init)
/usr/lib/gcc/avr/4.5.3/avr51/libgcc.a(_udivmodhi4.o)
                              contiki-micaz.a(init-net.o) (__udivmodhi4)
/usr/lib/gcc/avr/4.5.3/avr51/libgcc.a(_exit.o)
                              /usr/lib/gcc/avr/4.5.3/../../../avr/lib/avr51/crtm128.o (exit)
/usr/lib/gcc/avr/4.5.3/avr51/libgcc.a(_copy_data.o)
                              attilio_send.co (__do_copy_data)
/usr/lib/gcc/avr/4.5.3/avr51/libgcc.a(_clear_bss.o)
                              attilio_send.co (__do_clear_bss)
/usr/lib/gcc/avr/4.5.3/../../../avr/lib/avr51/libc.a(malloc.o)
                              contiki-micaz.a(packages.o) (malloc)
/usr/lib/gcc/avr/4.5.3/../../../avr/lib/avr51/libc.a(rand.o)
                              contiki-micaz.a(random.o) (rand)
/usr/lib/gcc/avr/4.5.3/../../../avr/lib/avr51/libc.a(memcpy.o)
                              contiki-micaz.a(packetbuf.o) (memcpy)
/usr/lib/gcc/avr/4.5.3/../../../avr/lib/avr51/libc.a(memset.o)
                              contiki-micaz.a(chameleon-bitop) (memset)
/usr/lib/gcc/avr/4.5.3/../../../avr/lib/avr51/libc.a(iob.o)
                              contiki-micaz.a(rs232.o) (__iob)
/usr/lib/gcc/avr/4.5.3/../../../avr/lib/avr51/libc.a(printf.o)
                              contiki-micaz.a(packages.o) (printf)
/usr/lib/gcc/avr/4.5.3/../../../avr/lib/avr51/libc.a(printf_p.o)
                              contiki-micaz.a(contiki-micaz-m) (printf_P)
/usr/lib/gcc/avr/4.5.3/../../../avr/lib/avr51/libc.a(vfprintf_std.o)
                              /usr/lib/gcc/avr/4.5.3/../../../avr/lib/avr51/libc.a(printf.o) (vfprintf)
/usr/lib/gcc/avr/4.5.3/../../../avr/lib/avr51/libc.a(eerd_block_atmega128.o)
                              contiki-micaz.a(eeprom.o) (__eerd_block_m128)
/usr/lib/gcc/avr/4.5.3/../../../avr/lib/avr51/libc.a(eewr_block_atmega128.o)
                              contiki-micaz.a(eeprom.o) (__eewr_block_m128)
/usr/lib/gcc/avr/4.5.3/../../../avr/lib/avr51/libc.a(eewr_byte_atmega128.o)
                              /usr/lib/gcc/avr/4.5.3/../../../avr/lib/avr51/libc.a(eewr_block_atmega128.o) (__eewr_r18_m128)
/usr/lib/gcc/avr/4.5.3/../../../avr/lib/avr51/libc.a(strnlen_P.o)
                              /usr/lib/gcc/avr/4.5.3/../../../avr/lib/avr51/libc.a(vfprintf_std.o) (strnlen_P)
/usr/lib/gcc/avr/4.5.3/../../../avr/lib/avr51/libc.a(strnlen.o)
                              /usr/lib/gcc/avr/4.5.3/../../../avr/lib/avr51/libc.a(vfprintf_std.o) (strnlen)
/usr/lib/gcc/avr/4.5.3/../../../avr/lib/avr51/libc.a(fputc.o)
                              /usr/lib/gcc/avr/4.5.3/../../../avr/lib/avr51/libc.a(vfprintf_std.o) (fputc)
/usr/lib/gcc/avr/4.5.3/../../../avr/lib/avr51/libc.a(ultoa_invert.o)
                              /usr/lib/gcc/avr/4.5.3/../../../avr/lib/avr51/libc.a(vfprintf_std.o) (__ultoa_invert)
/usr/lib/gcc/avr/4.5.3/avr51/libgcc.a(_mulsi3.o)
                              /usr/lib/gcc/avr/4.5.3/../../../avr/lib/avr51/libc.a(rand.o) (__mulsi3)
/usr/lib/gcc/avr/4.5.3/avr51/libgcc.a(_divmodsi4.o)
                              /usr/lib/gcc/avr/4.5.3/../../../avr/lib/avr51/libc.a(rand.o) (__divmodsi4)
/usr/lib/gcc/avr/4.5.3/avr51/libgcc.a(_udivmodsi4.o)
                              /usr/lib/gcc/avr/4.5.3/avr51/libgcc.a(_divmodsi4.o) (__udivmodsi4)

Allocating common symbols
Common symbol       size              file

compower_idle_activity
                    0x8               contiki-micaz.a(compower.o)
cc2420_last_rssi    0x1               contiki-micaz.a(cc2420.o)
cc2420_packets_read
                    0x2               contiki-micaz.a(cc2420.o)
cc2420_packets_seen
                    0x2               contiki-micaz.a(cc2420.o)
cc2420_sfd_start_time
                    0x2               contiki-micaz.a(cc2420.o)
cc2420_time_of_departure
                    0x2               contiki-micaz.a(cc2420.o)
input_handler_1     0x2               contiki-micaz.a(rs232.o)
cc2420_time_of_arrival
                    0x2               contiki-micaz.a(cc2420.o)
rimestats           0x48              contiki-micaz.a(rimestats.o)
packetbuf_addrs     0x8               contiki-micaz.a(packetbuf.o)
rimeaddr_node_addr  0x2               contiki-micaz.a(rimeaddr.o)
process_maxevents   0x1               contiki-micaz.a(process.o)
__brkval            0x2               /usr/lib/gcc/avr/4.5.3/../../../avr/lib/avr51/libc.a(malloc.o)
cc2420_last_correlation
                    0x1               contiki-micaz.a(cc2420.o)
cc2420_authority_level_of_sender
                    0x2               contiki-micaz.a(cc2420.o)
packetbuf_attrs     0x30              contiki-micaz.a(packetbuf.o)
cc2420_sfd_counter  0x1               contiki-micaz.a(cc2420.o)
ds2401_id           0x8               contiki-micaz.a(ds2401.o)
input_handler_0     0x2               contiki-micaz.a(rs232.o)
__flp               0x2               /usr/lib/gcc/avr/4.5.3/../../../avr/lib/avr51/libc.a(malloc.o)
cc2420_sfd_end_time
                    0x2               contiki-micaz.a(cc2420.o)
__iob               0x6               /usr/lib/gcc/avr/4.5.3/../../../avr/lib/avr51/libc.a(iob.o)

Memory Configuration

Name             Origin             Length             Attributes
text             0x00000000         0x00020000         xr
data             0x00800100         0x0000ff00         rw !x
eeprom           0x00810000         0x00010000         rw !x
fuse             0x00820000         0x00000400         rw !x
lock             0x00830000         0x00000400         rw !x
signature        0x00840000         0x00000400         rw !x
*default*        0x00000000         0xffffffff

Linker script and memory map

Address of section .data set to 0x800100
LOAD /usr/lib/gcc/avr/4.5.3/../../../avr/lib/avr51/crtm128.o
Address of section .bootloader set to 0x1f800
LOAD attilio_send.co
LOAD symbols.o
LOAD contiki-micaz.a
LOAD /usr/lib/gcc/avr/4.5.3/avr51/libgcc.a
LOAD /usr/lib/gcc/avr/4.5.3/../../../avr/lib/avr51/libc.a
LOAD /usr/lib/gcc/avr/4.5.3/avr51/libgcc.a

.hash
 *(.hash)

.dynsym
 *(.dynsym)

.dynstr
 *(.dynstr)

.gnu.version
 *(.gnu.version)

.gnu.version_d
 *(.gnu.version_d)

.gnu.version_r
 *(.gnu.version_r)

.rel.init
 *(.rel.init)

.rela.init
 *(.rela.init)

.rel.text
 *(.rel.text)
 *(.rel.text.*)
 *(.rel.gnu.linkonce.t*)

.rela.text
 *(.rela.text)
 *(.rela.text.*)
 *(.rela.gnu.linkonce.t*)

.rel.fini
 *(.rel.fini)

.rela.fini
 *(.rela.fini)

.rel.rodata
 *(.rel.rodata)
 *(.rel.rodata.*)
 *(.rel.gnu.linkonce.r*)

.rela.rodata
 *(.rela.rodata)
 *(.rela.rodata.*)
 *(.rela.gnu.linkonce.r*)

.rel.data
 *(.rel.data)
 *(.rel.data.*)
 *(.rel.gnu.linkonce.d*)

.rela.data
 *(.rela.data)
 *(.rela.data.*)
 *(.rela.gnu.linkonce.d*)

.rel.ctors
 *(.rel.ctors)

.rela.ctors
 *(.rela.ctors)

.rel.dtors
 *(.rel.dtors)

.rela.dtors
 *(.rela.dtors)

.rel.got
 *(.rel.got)

.rela.got
 *(.rela.got)

.rel.bss
 *(.rel.bss)

.rela.bss
 *(.rela.bss)

.rel.plt
 *(.rel.plt)

.rela.plt
 *(.rela.plt)

.text           0x00000000     0x53d6
 *(.vectors)
 .vectors       0x00000000       0x8c /usr/lib/gcc/avr/4.5.3/../../../avr/lib/avr51/crtm128.o
                0x00000000                __vectors
                0x00000000                __vector_default
 *(.vectors)
 *(.progmem.gcc*)
 *(.progmem*)
 .progmem.data  0x0000008c       0x21 contiki-micaz.a(contiki-micaz-m)
 .progmem.data  0x000000ad       0x83 contiki-micaz.a(init-net.o)
                0x00000130                . = ALIGN (0x2)
                0x00000130                __trampolines_start = .
 *(.trampolines)
 .trampolines   0x00000130        0x0 linker stubs
 *(.trampolines*)
                0x00000130                __trampolines_end = .
 *(.jumptables)
 *(.jumptables*)
 *(.lowtext)
 *(.lowtext*)
                0x00000130                __ctors_start = .
 *(.ctors)
                0x00000130                __ctors_end = .
                0x00000130                __dtors_start = .
 *(.dtors)
                0x00000130                __dtors_end = .
 SORT(*)(.ctors)
 SORT(*)(.dtors)
 *(.init0)
 .init0         0x00000130        0x0 /usr/lib/gcc/avr/4.5.3/../../../avr/lib/avr51/crtm128.o
                0x00000130                __init
 *(.init0)
 *(.init1)
 *(.init1)
 *(.init2)
 .init2         0x00000130        0xc /usr/lib/gcc/avr/4.5.3/../../../avr/lib/avr51/crtm128.o
 *(.init2)
 *(.init3)
 *(.init3)
 *(.init4)
 .init4         0x0000013c       0x1a /usr/lib/gcc/avr/4.5.3/avr51/libgcc.a(_copy_data.o)
                0x0000013c                __do_copy_data
 .init4         0x00000156       0x10 /usr/lib/gcc/avr/4.5.3/avr51/libgcc.a(_clear_bss.o)
                0x00000156                __do_clear_bss
 *(.init4)
 *(.init5)
 *(.init5)
 *(.init6)
 *(.init6)
 *(.init7)
 *(.init7)
 *(.init8)
 *(.init8)
 *(.init9)
 .init9         0x00000166        0x8 /usr/lib/gcc/avr/4.5.3/../../../avr/lib/avr51/crtm128.o
 *(.init9)
 *(.text)
 .text          0x0000016e        0x4 /usr/lib/gcc/avr/4.5.3/../../../avr/lib/avr51/crtm128.o
                0x0000016e                __vector_22
                0x0000016e                __vector_28
                0x0000016e                __vector_1
                0x0000016e                __vector_32
                0x0000016e                __vector_34
                0x0000016e                __vector_24
                0x0000016e                __vector_12
                0x0000016e                __bad_interrupt
                0x0000016e                __vector_6
                0x0000016e                __vector_31
                0x0000016e                __vector_3
                0x0000016e                __vector_23
                0x0000016e                __vector_25
                0x0000016e                __vector_11
                0x0000016e                __vector_13
                0x0000016e                __vector_17
                0x0000016e                __vector_19
                0x0000016e                __vector_27
                0x0000016e                __vector_5
                0x0000016e                __vector_33
                0x0000016e                __vector_4
                0x0000016e                __vector_9
                0x0000016e                __vector_2
                0x0000016e                __vector_21
                0x0000016e                __vector_29
                0x0000016e                __vector_8
                0x0000016e                __vector_14
                0x0000016e                __vector_10
                0x0000016e                __vector_16
                0x0000016e                __vector_20
 .text          0x00000172      0x140 attilio_send.co
 .text          0x000002b2        0x0 symbols.o
 .text          0x000002b2       0xc0 contiki-micaz.a(broadcast.o)
                0x00000318                broadcast_open
                0x0000034e                broadcast_close
                0x00000354                broadcast_send
 .text          0x00000372       0x66 contiki-micaz.a(abc.o)
                0x00000372                abc_open
                0x000003a4                abc_close
                0x000003aa                abc_send
                0x000003b0                abc_input
                0x000003c0                abc_sent
 .text          0x000003d8       0x82 contiki-micaz.a(channel.o)
                0x000003d8                channel_init
                0x000003e2                channel_open
                0x000003f4                channel_close
                0x00000400                channel_lookup
                0x00000430                channel_set_attributes
 .text          0x0000045a      0x1a8 contiki-micaz.a(list.o)
                0x0000045a                list_init
                0x00000462                list_head
                0x0000046a                list_copy
                0x00000478                list_tail
                0x0000049c                list_chop
                0x000004e4                list_pop
                0x000004fe                list_remove
                0x00000548                list_push
                0x00000570                list_add
                0x000005ae                list_length
                0x000005ce                list_insert
                0x000005ee                list_item_next
 .text          0x00000602      0x2ea contiki-micaz.a(etimer.o)
                0x00000666                etimer_request_poll
                0x000007e0                etimer_set
                0x000007f6                etimer_reset
                0x0000080c                etimer_restart
                0x00000822                etimer_adjust
                0x00000836                etimer_expired
                0x0000084c                etimer_expiration_time
                0x0000085e                etimer_start_time
                0x00000866                etimer_pending
                0x0000087e                etimer_next_expiration_time
                0x0000089c                etimer_stop
 .text          0x000008ec      0x364 contiki-micaz.a(packetbuf.o)
                0x000008ec                packetbuf_clear_hdr
                0x000008f4                packetbuf_copyto_hdr
                0x00000922                packetbuf_copyto
                0x000009aa                packetbuf_hdr_remove
                0x000009b6                packetbuf_hdrreduce
                0x000009f4                packetbuf_set_datalen
                0x000009fe                packetbuf_dataptr
                0x00000a0e                packetbuf_hdrptr
                0x00000a1c                packetbuf_is_reference
                0x00000a38                packetbuf_compact
                0x00000a98                packetbuf_reference_ptr
                0x00000aa2                packetbuf_datalen
                0x00000aac                packetbuf_hdrlen
                0x00000ab6                packetbuf_totlen
                0x00000ace                packetbuf_hdralloc
                0x00000b0c                packetbuf_attr_clear
                0x00000b44                packetbuf_clear
                0x00000b6c                packetbuf_reference
                0x00000b96                packetbuf_copyfrom
                0x00000bfc                packetbuf_attr_copyto
                0x00000c26                packetbuf_attr_copyfrom
 .text          0x00000c50       0xa4 contiki-micaz.a(contiki-micaz-m)
                0x00000c50                init_usart
                0x00000c62                main
 .text          0x00000cf4      0x20e contiki-micaz.a(init-net.o)
                0x00000cf4                init_net
 .text          0x00000f02       0x9e contiki-micaz.a(node-id.o)
                0x00000f02                node_id_restore
                0x00000f5a                node_id_burn
 .text          0x00000fa0      0x17a contiki-micaz.a(clock.o)
                0x00000fa0                __vector_15
                0x00001058                clock_init
                0x00001090                clock_time
                0x000010aa                clock_delay
                0x000010c0                clock_wait
                0x000010e8                clock_set_seconds
                0x000010ea                clock_seconds
 .text          0x0000111a      0x190 contiki-micaz.a(ds2401.o)
                0x00001184                ds2401_init
 .text          0x000012aa      0x20c contiki-micaz.a(packages.o)
                0x000012aa                send_start_pkg_broad
                0x000012f6                send_stop_pkg_broad
                0x00001342                send_adj_pkg_broad
                0x000013d8                send_token_pkg
 .text          0x000014b6       0x20 contiki-micaz.a(eeprom.o)
                0x000014b6                eeprom_write
                0x000014c6                eeprom_read
 .text          0x000014d6       0x82 contiki-micaz.a(leds.o)
                0x000014e6                leds_init
                0x000014f4                leds_get
                0x000014fa                leds_on
                0x0000150a                leds_off
                0x0000151c                leds_invert
                0x0000152c                leds_toggle
                0x00001532                leds_blink
 .text          0x00001558       0x46 contiki-micaz.a(rimeaddr.o)
                0x00001558                rimeaddr_copy
                0x0000156a                rimeaddr_cmp
                0x0000158e                rimeaddr_set_node_addr
 .text          0x0000159e      0x16a contiki-micaz.a(rime.o)
                0x00001694                rime_sniffer_add
                0x000016a0                rime_sniffer_remove
                0x000016ac                rime_output
 .text          0x00001708        0x0 contiki-micaz.a(rimestats.o)
 .text          0x00001708      0x17e contiki-micaz.a(announcement.o)
                0x00001708                announcement_init
                0x00001712                announcement_register
                0x00001754                announcement_remove
                0x00001760                announcement_remove_value
                0x00001790                announcement_set_value
                0x000017cc                announcement_bump
                0x000017fa                announcement_listen
                0x0000180a                announcement_register_listen_callback
                0x00001814                announcement_register_observer_callback
                0x0000181e                announcement_list
                0x00001828                announcement_heard
 .text          0x00001886      0x23a contiki-micaz.a(broadcast-annou)
                0x00001a42                broadcast_announcement_init
                0x00001a92                broadcast_announcement_stop
                0x00001ab6                broadcast_announcement_beacon_interval
 .text          0x00001ac0       0x62 contiki-micaz.a(chameleon.o)
                0x00001ac0                chameleon_init
                0x00001ac6                chameleon_parse
                0x00001ae6                chameleon_create
                0x00001b16                chameleon_hdrsize
 .text          0x00001b22      0x4d2 contiki-micaz.a(chameleon-bitop)
                0x00001b3c                get_bits_in_byte
                0x00001b7a                get_bits
                0x00001da8                set_bits_in_byte
                0x00001dd0                set_bits
 .text          0x00001ff4      0x82e contiki-micaz.a(cxmac.o)
                0x000027f0                cxmac_init
                0x00002820                cxmac_set_announcement_radio_txpower
 .text          0x00002822       0x38 contiki-micaz.a(nullmac.o)
 .text          0x0000285a       0x10 contiki-micaz.a(mac.o)
                0x0000285a                mac_call_sent_callback
 .text          0x0000286a      0x216 contiki-micaz.a(framer-802154.o)
 .text          0x00002a80      0x372 contiki-micaz.a(process.o)
                0x00002be8                process_alloc_event
                0x00002bf6                process_exit
                0x00002c04                process_init
                0x00002c28                process_run
                0x00002cfa                process_nevents
                0x00002d0c                process_post
                0x00002d62                process_post_synch
                0x00002d80                process_start
                0x00002dc6                process_poll
                0x00002dde                process_is_running
 .text          0x00002df2       0x58 contiki-micaz.a(autostart.o)
                0x00002df2                autostart_start
                0x00002e20                autostart_exit
 .text          0x00002e4a      0x16e contiki-micaz.a(compower.o)
                0x00002e4a                compower_init
                0x00002e6c                compower_accumulate
                0x00002f24                compower_clear
                0x00002f38                compower_attrconv
                0x00002f6c                compower_accumulate_attrs
 .text          0x00002fb8      0x110 contiki-micaz.a(memb.o)
                0x00002fb8                memb_init
                0x00002ff8                memb_alloc
                0x00003044                memb_free
                0x0000308e                memb_inmemb
 .text          0x000030c8       0x98 contiki-micaz.a(timer.o)
                0x000030c8                timer_set
                0x000030e0                timer_reset
                0x000030f4                timer_restart
                0x00003108                timer_expired
                0x00003136                timer_remaining
 .text          0x00003160      0x288 contiki-micaz.a(ctimer.o)
                0x00003246                ctimer_init
                0x00003260                ctimer_set
                0x000032c6                ctimer_reset
                0x0000331a                ctimer_restart
                0x0000336e                ctimer_stop
                0x0000339e                ctimer_expired
 .text          0x000033e8        0xe contiki-micaz.a(energest.o)
                0x000033e8                energest_type_set
                0x000033ea                energest_init
                0x000033ec                energest_type_time
                0x000033f4                energest_flush
 .text          0x000033f6       0x7c contiki-micaz.a(rtimer.o)
                0x000033f6                rtimer_init
                0x000033fc                rtimer_set
                0x00003434                rtimer_run_next
 .text          0x00003472        0xc contiki-micaz.a(random.o)
                0x00003472                random_init
                0x00003478                random_rand
 .text          0x0000347e      0x210 contiki-micaz.a(queuebuf.o)
                0x0000347e                queuebuf_init
                0x00003498                queuebuf_new_from_packetbuf
                0x00003536                queuebuf_update_attr_from_packetbuf
                0x0000354c                queuebuf_free
                0x00003590                queuebuf_to_packetbuf
                0x0000360c                queuebuf_dataptr
                0x0000364a                queuebuf_datalen
                0x00003658                queuebuf_addr
                0x00003670                queuebuf_attr
                0x0000368c                queuebuf_debug_print
 .text          0x0000368e      0x1b8 contiki-micaz.a(rs232.o)
                0x0000368e                __vector_18
                0x000036ea                __vector_30
                0x00003748                rs232_init
                0x00003784                rs232_send
                0x000037a2                rs232_stdout_putchar
                0x000037cc                rs232_set_input
                0x000037e8                rs232_print
                0x0000382a                slip_arch_writeb
                0x00003834                rs232_redirect_stdout
 .text          0x00003846       0x56 contiki-micaz.a(leds-arch.o)
                0x00003846                leds_arch_init
                0x00003854                leds_arch_get
                0x00003874                leds_arch_set
 .text          0x0000389c      0xb26 contiki-micaz.a(cc2420.o)
                0x00003ad6                cc2420_on
                0x00003b02                cc2420_off
                0x00003e3e                cc2420_get_channel
                0x00003e48                cc2420_set_channel
                0x00003ee8                cc2420_set_pan_addr
                0x00003ffc                cc2420_init
                0x000040c4                cc2420_interrupt
                0x00004102                cc2420_set_txpower
                0x00004116                cc2420_get_txpower
                0x000042e2                cc2420_rssi
                0x0000436a                cc2420_cca_valid
                0x000043a6                cc2420_set_cca_threshold
 .text          0x000043c2       0x6e contiki-micaz.a(cc2420-arch.o)
                0x000043c2                cc2420_arch_init
                0x000043e0                __vector_7
 .text          0x00004430       0xb6 contiki-micaz.a(rtimer-arch.o)
                0x00004430                __vector_26
                0x0000448a                rtimer_arch_init
                0x000044c2                rtimer_arch_schedule
 .text          0x000044e6       0x50 contiki-micaz.a(watchdog.o)
                0x000044e6                watchdog_init
                0x000044fa                watchdog_start
                0x0000450e                watchdog_periodic
                0x00004512                watchdog_stop
                0x00004520                watchdog_reboot
 .text          0x00004536      0x452 contiki-micaz.a(frame802154.o)
                0x000045e8                frame802154_hdrlen
                0x00004624                frame802154_create
                0x000047fa                frame802154_parse
 .text          0x00004988       0x16 contiki-micaz.a(spi.o)
                0x00004988                spi_init
 .text          0x0000499e        0x0 /usr/lib/gcc/avr/4.5.3/avr51/libgcc.a(_udivmodhi4.o)
 .text          0x0000499e        0x0 /usr/lib/gcc/avr/4.5.3/avr51/libgcc.a(_exit.o)
 .text          0x0000499e        0x0 /usr/lib/gcc/avr/4.5.3/avr51/libgcc.a(_copy_data.o)
 .text          0x0000499e        0x0 /usr/lib/gcc/avr/4.5.3/avr51/libgcc.a(_clear_bss.o)
 .text          0x0000499e        0x0 /usr/lib/gcc/avr/4.5.3/../../../avr/lib/avr51/libc.a(malloc.o)
 .text          0x0000499e        0x0 /usr/lib/gcc/avr/4.5.3/../../../avr/lib/avr51/libc.a(rand.o)
 .text          0x0000499e        0x0 /usr/lib/gcc/avr/4.5.3/../../../avr/lib/avr51/libc.a(memcpy.o)
 .text          0x0000499e        0x0 /usr/lib/gcc/avr/4.5.3/../../../avr/lib/avr51/libc.a(memset.o)
 .text          0x0000499e        0x0 /usr/lib/gcc/avr/4.5.3/../../../avr/lib/avr51/libc.a(iob.o)
 .text          0x0000499e        0x0 /usr/lib/gcc/avr/4.5.3/../../../avr/lib/avr51/libc.a(printf.o)
 .text          0x0000499e        0x0 /usr/lib/gcc/avr/4.5.3/../../../avr/lib/avr51/libc.a(printf_p.o)
 .text          0x0000499e        0x0 /usr/lib/gcc/avr/4.5.3/../../../avr/lib/avr51/libc.a(vfprintf_std.o)
 .text          0x0000499e        0x0 /usr/lib/gcc/avr/4.5.3/../../../avr/lib/avr51/libc.a(eerd_block_atmega128.o)
 .text          0x0000499e        0x0 /usr/lib/gcc/avr/4.5.3/../../../avr/lib/avr51/libc.a(eewr_block_atmega128.o)
 .text          0x0000499e        0x0 /usr/lib/gcc/avr/4.5.3/../../../avr/lib/avr51/libc.a(eewr_byte_atmega128.o)
 .text          0x0000499e        0x0 /usr/lib/gcc/avr/4.5.3/../../../avr/lib/avr51/libc.a(strnlen_P.o)
 .text          0x0000499e        0x0 /usr/lib/gcc/avr/4.5.3/../../../avr/lib/avr51/libc.a(strnlen.o)
 .text          0x0000499e        0x0 /usr/lib/gcc/avr/4.5.3/../../../avr/lib/avr51/libc.a(fputc.o)
 .text          0x0000499e        0x0 /usr/lib/gcc/avr/4.5.3/../../../avr/lib/avr51/libc.a(ultoa_invert.o)
 .text          0x0000499e        0x0 /usr/lib/gcc/avr/4.5.3/avr51/libgcc.a(_mulsi3.o)
 .text          0x0000499e        0x0 /usr/lib/gcc/avr/4.5.3/avr51/libgcc.a(_divmodsi4.o)
 .text          0x0000499e        0x0 /usr/lib/gcc/avr/4.5.3/avr51/libgcc.a(_udivmodsi4.o)
                0x0000499e                . = ALIGN (0x2)
 *(.text.*)
 .text.libgcc   0x0000499e       0x28 /usr/lib/gcc/avr/4.5.3/avr51/libgcc.a(_udivmodhi4.o)
                0x0000499e                __udivmodhi4
 .text.libgcc   0x000049c6        0x0 /usr/lib/gcc/avr/4.5.3/avr51/libgcc.a(_exit.o)
 .text.libgcc   0x000049c6        0x0 /usr/lib/gcc/avr/4.5.3/avr51/libgcc.a(_copy_data.o)
 .text.libgcc   0x000049c6        0x0 /usr/lib/gcc/avr/4.5.3/avr51/libgcc.a(_clear_bss.o)
 .text.avr-libc
                0x000049c6      0x266 /usr/lib/gcc/avr/4.5.3/../../../avr/lib/avr51/libc.a(malloc.o)
                0x000049c6                malloc
                0x00004afa                free
 .text.avr-libc
                0x00004c2c       0xbc /usr/lib/gcc/avr/4.5.3/../../../avr/lib/avr51/libc.a(rand.o)
                0x00004cc2                rand_r
                0x00004cc8                rand
                0x00004cd2                srand
 .text.avr-libc
                0x00004ce8       0x12 /usr/lib/gcc/avr/4.5.3/../../../avr/lib/avr51/libc.a(memcpy.o)
                0x00004ce8                memcpy
 .text.avr-libc
                0x00004cfa        0xe /usr/lib/gcc/avr/4.5.3/../../../avr/lib/avr51/libc.a(memset.o)
                0x00004cfa                memset
 .text.avr-libc
                0x00004d08       0x24 /usr/lib/gcc/avr/4.5.3/../../../avr/lib/avr51/libc.a(printf.o)
                0x00004d08                printf
 .text.avr-libc
                0x00004d2c       0x40 /usr/lib/gcc/avr/4.5.3/../../../avr/lib/avr51/libc.a(printf_p.o)
                0x00004d2c                printf_P
 .text.avr-libc
                0x00004d6c      0x420 /usr/lib/gcc/avr/4.5.3/../../../avr/lib/avr51/libc.a(vfprintf_std.o)
                0x00004d6c                vfprintf
 .text.avr-libc
                0x0000518c       0x20 /usr/lib/gcc/avr/4.5.3/../../../avr/lib/avr51/libc.a(eerd_block_atmega128.o)
                0x0000518c                __eerd_block_m128
                0x00005190                __eerd_blraw_m128
 .text.avr-libc
                0x000051ac       0x14 /usr/lib/gcc/avr/4.5.3/../../../avr/lib/avr51/libc.a(eewr_block_atmega128.o)
                0x000051ac                __eewr_block_m128
 .text.avr-libc
                0x000051c0       0x1a /usr/lib/gcc/avr/4.5.3/../../../avr/lib/avr51/libc.a(eewr_byte_atmega128.o)
                0x000051c0                __eewr_byte_m128
                0x000051c2                __eewr_r18_m128
 .text.avr-libc
                0x000051da       0x16 /usr/lib/gcc/avr/4.5.3/../../../avr/lib/avr51/libc.a(strnlen_P.o)
                0x000051da                strnlen_P
 .text.avr-libc
                0x000051f0       0x16 /usr/lib/gcc/avr/4.5.3/../../../avr/lib/avr51/libc.a(strnlen.o)
                0x000051f0                strnlen
 .text.avr-libc
                0x00005206       0x58 /usr/lib/gcc/avr/4.5.3/../../../avr/lib/avr51/libc.a(fputc.o)
                0x00005206                fputc
 .text.avr-libc
                0x0000525e       0xbc /usr/lib/gcc/avr/4.5.3/../../../avr/lib/avr51/libc.a(ultoa_invert.o)
                0x0000525e                __ultoa_invert
 .text.libgcc   0x0000531a       0x3e /usr/lib/gcc/avr/4.5.3/avr51/libgcc.a(_mulsi3.o)
                0x0000531a                __mulsi3
 .text.libgcc   0x00005358       0x36 /usr/lib/gcc/avr/4.5.3/avr51/libgcc.a(_divmodsi4.o)
                0x00005358                __divmodsi4
 .text.libgcc   0x0000538e       0x44 /usr/lib/gcc/avr/4.5.3/avr51/libgcc.a(_udivmodsi4.o)
                0x0000538e                __udivmodsi4
                0x000053d2                . = ALIGN (0x2)
 *(.fini9)
 .fini9         0x000053d2        0x0 /usr/lib/gcc/avr/4.5.3/avr51/libgcc.a(_exit.o)
                0x000053d2                exit
                0x000053d2                _exit
 *(.fini9)
 *(.fini8)
 *(.fini8)
 *(.fini7)
 *(.fini7)
 *(.fini6)
 *(.fini6)
 *(.fini5)
 *(.fini5)
 *(.fini4)
 *(.fini4)
 *(.fini3)
 *(.fini3)
 *(.fini2)
 *(.fini2)
 *(.fini1)
 *(.fini1)
 *(.fini0)
 .fini0         0x000053d2        0x4 /usr/lib/gcc/avr/4.5.3/avr51/libgcc.a(_exit.o)
 *(.fini0)
                0x000053d6                _etext = .

.data           0x00800100       0xf0 load address 0x000053d6
                0x00800100                PROVIDE (__data_start, .)
 *(.data)
 .data          0x00800100        0x0 /usr/lib/gcc/avr/4.5.3/../../../avr/lib/avr51/crtm128.o
 .data          0x00800100       0x10 attilio_send.co
                0x00800100                example_broadcast_process
                0x00800108                autostart_processes
 .data          0x00800110        0x6 symbols.o
                0x00800110                symbols_nelts
                0x00800112                symbols
 .data          0x00800116        0x8 contiki-micaz.a(broadcast.o)
 .data          0x0080011e        0x2 contiki-micaz.a(abc.o)
 .data          0x00800120        0x0 contiki-micaz.a(channel.o)
 .data          0x00800120        0x0 contiki-micaz.a(list.o)
 .data          0x00800120        0x8 contiki-micaz.a(etimer.o)
                0x00800120                etimer_process
 .data          0x00800128        0x0 contiki-micaz.a(packetbuf.o)
 .data          0x00800128        0x0 contiki-micaz.a(contiki-micaz-m)
 .data          0x00800128        0x0 contiki-micaz.a(init-net.o)
 .data          0x00800128        0x0 contiki-micaz.a(node-id.o)
 .data          0x00800128        0x0 contiki-micaz.a(clock.o)
 .data          0x00800128        0x0 contiki-micaz.a(ds2401.o)
 .data          0x00800128       0x10 contiki-micaz.a(packages.o)
 .data          0x00800138        0x0 contiki-micaz.a(eeprom.o)
 .data          0x00800138        0x0 contiki-micaz.a(leds.o)
 .data          0x00800138        0x2 contiki-micaz.a(rimeaddr.o)
                0x00800138                rimeaddr_null
 .data          0x0080013a        0xb contiki-micaz.a(rime.o)
                0x0080013f                rime_driver
 .data          0x00800145        0x0 contiki-micaz.a(rimestats.o)
 .data          0x00800145        0x0 contiki-micaz.a(announcement.o)
 .data          0x00800145        0x4 contiki-micaz.a(broadcast-annou)
 .data          0x00800149        0x0 contiki-micaz.a(chameleon.o)
 .data          0x00800149        0xf contiki-micaz.a(chameleon-bitop)
                0x00800149                chameleon_bitopt
 .data          0x00800158       0x27 contiki-micaz.a(cxmac.o)
                0x00800158                cxmac_config
                0x00800167                cxmac_driver
 .data          0x0080017f       0x16 contiki-micaz.a(nullmac.o)
                0x00800187                nullmac_driver
 .data          0x00800195        0x0 contiki-micaz.a(mac.o)
 .data          0x00800195        0x4 contiki-micaz.a(framer-802154.o)
                0x00800195                framer_802154
 .data          0x00800199        0x0 contiki-micaz.a(process.o)
 .data          0x00800199        0x0 contiki-micaz.a(autostart.o)
 .data          0x00800199        0x0 contiki-micaz.a(compower.o)
 .data          0x00800199        0x0 contiki-micaz.a(memb.o)
 .data          0x00800199        0x0 contiki-micaz.a(timer.o)
 .data          0x00800199        0x8 contiki-micaz.a(ctimer.o)
                0x00800199                ctimer_process
 .data          0x008001a1        0x0 contiki-micaz.a(energest.o)
 .data          0x008001a1        0x0 contiki-micaz.a(rtimer.o)
 .data          0x008001a1        0x0 contiki-micaz.a(random.o)
 .data          0x008001a1       0x18 contiki-micaz.a(queuebuf.o)
 .data          0x008001b9        0xe contiki-micaz.a(rs232.o)
 .data          0x008001c7        0x0 contiki-micaz.a(leds-arch.o)
 .data          0x008001c7       0x1c contiki-micaz.a(cc2420.o)
                0x008001c7                cc2420_process
                0x008001cf                cc2420_driver
 .data          0x008001e3        0x0 contiki-micaz.a(cc2420-arch.o)
 .data          0x008001e3        0x0 contiki-micaz.a(rtimer-arch.o)
 .data          0x008001e3        0x0 contiki-micaz.a(watchdog.o)
 .data          0x008001e3        0x2 contiki-micaz.a(frame802154.o)
 .data          0x008001e5        0x0 contiki-micaz.a(spi.o)
 .data          0x008001e5        0x0 /usr/lib/gcc/avr/4.5.3/avr51/libgcc.a(_udivmodhi4.o)
 .data          0x008001e5        0x0 /usr/lib/gcc/avr/4.5.3/avr51/libgcc.a(_exit.o)
 .data          0x008001e5        0x0 /usr/lib/gcc/avr/4.5.3/avr51/libgcc.a(_copy_data.o)
 .data          0x008001e5        0x0 /usr/lib/gcc/avr/4.5.3/avr51/libgcc.a(_clear_bss.o)
 .data          0x008001e5        0x6 /usr/lib/gcc/avr/4.5.3/../../../avr/lib/avr51/libc.a(malloc.o)
                0x008001e5                __malloc_margin
                0x008001e7                __malloc_heap_start
                0x008001e9                __malloc_heap_end
 .data          0x008001eb        0x4 /usr/lib/gcc/avr/4.5.3/../../../avr/lib/avr51/libc.a(rand.o)
 .data          0x008001ef        0x0 /usr/lib/gcc/avr/4.5.3/../../../avr/lib/avr51/libc.a(memcpy.o)
 .data          0x008001ef        0x0 /usr/lib/gcc/avr/4.5.3/../../../avr/lib/avr51/libc.a(memset.o)
 .data          0x008001ef        0x0 /usr/lib/gcc/avr/4.5.3/../../../avr/lib/avr51/libc.a(iob.o)
 .data          0x008001ef        0x0 /usr/lib/gcc/avr/4.5.3/../../../avr/lib/avr51/libc.a(printf.o)
 .data          0x008001ef        0x0 /usr/lib/gcc/avr/4.5.3/../../../avr/lib/avr51/libc.a(printf_p.o)
 .data          0x008001ef        0x0 /usr/lib/gcc/avr/4.5.3/../../../avr/lib/avr51/libc.a(vfprintf_std.o)
 .data          0x008001ef        0x0 /usr/lib/gcc/avr/4.5.3/../../../avr/lib/avr51/libc.a(eerd_block_atmega128.o)
 .data          0x008001ef        0x0 /usr/lib/gcc/avr/4.5.3/../../../avr/lib/avr51/libc.a(eewr_block_atmega128.o)
 .data          0x008001ef        0x0 /usr/lib/gcc/avr/4.5.3/../../../avr/lib/avr51/libc.a(eewr_byte_atmega128.o)
 .data          0x008001ef        0x0 /usr/lib/gcc/avr/4.5.3/../../../avr/lib/avr51/libc.a(strnlen_P.o)
 .data          0x008001ef        0x0 /usr/lib/gcc/avr/4.5.3/../../../avr/lib/avr51/libc.a(strnlen.o)
 .data          0x008001ef        0x0 /usr/lib/gcc/avr/4.5.3/../../../avr/lib/avr51/libc.a(fputc.o)
 .data          0x008001ef        0x0 /usr/lib/gcc/avr/4.5.3/../../../avr/lib/avr51/libc.a(ultoa_invert.o)
 .data          0x008001ef        0x0 /usr/lib/gcc/avr/4.5.3/avr51/libgcc.a(_mulsi3.o)
 .data          0x008001ef        0x0 /usr/lib/gcc/avr/4.5.3/avr51/libgcc.a(_divmodsi4.o)
 .data          0x008001ef        0x0 /usr/lib/gcc/avr/4.5.3/avr51/libgcc.a(_udivmodsi4.o)
 *(.data*)
 *(.rodata)
 *(.rodata*)
 *(.gnu.linkonce.d*)
                0x008001f0                . = ALIGN (0x2)
 *fill*         0x008001ef        0x1 00
                0x008001f0                _edata = .
                0x008001f0                PROVIDE (__data_end, .)

.bss            0x008001f0      0x8bf
                0x008001f0                PROVIDE (__bss_start, .)
 *(.bss)
 .bss           0x008001f0        0x0 /usr/lib/gcc/avr/4.5.3/../../../avr/lib/avr51/crtm128.o
 .bss           0x008001f0       0x13 attilio_send.co
 .bss           0x00800203        0x0 symbols.o
 .bss           0x00800203        0x0 contiki-micaz.a(broadcast.o)
 .bss           0x00800203        0x0 contiki-micaz.a(abc.o)
 .bss           0x00800203        0x2 contiki-micaz.a(channel.o)
 .bss           0x00800205        0x0 contiki-micaz.a(list.o)
 .bss           0x00800205        0x4 contiki-micaz.a(etimer.o)
 .bss           0x00800209       0xb9 contiki-micaz.a(packetbuf.o)
 .bss           0x008002c2        0x0 contiki-micaz.a(contiki-micaz-m)
 .bss           0x008002c2        0x0 contiki-micaz.a(init-net.o)
 .bss           0x008002c2        0x2 contiki-micaz.a(node-id.o)
                0x008002c2                node_id
 .bss           0x008002c4        0x8 contiki-micaz.a(clock.o)
 .bss           0x008002cc        0x0 contiki-micaz.a(ds2401.o)
 .bss           0x008002cc        0x0 contiki-micaz.a(packages.o)
 .bss           0x008002cc        0x0 contiki-micaz.a(eeprom.o)
 .bss           0x008002cc        0x2 contiki-micaz.a(leds.o)
 .bss           0x008002ce        0x0 contiki-micaz.a(rimeaddr.o)
 .bss           0x008002ce        0x2 contiki-micaz.a(rime.o)
 .bss           0x008002d0        0x0 contiki-micaz.a(rimestats.o)
 .bss           0x008002d0        0x6 contiki-micaz.a(announcement.o)
 .bss           0x008002d6       0x35 contiki-micaz.a(broadcast-annou)
 .bss           0x0080030b        0x0 contiki-micaz.a(chameleon.o)
 .bss           0x0080030b        0x0 contiki-micaz.a(chameleon-bitop)
 .bss           0x0080030b       0x44 contiki-micaz.a(cxmac.o)
 .bss           0x0080034f        0x0 contiki-micaz.a(nullmac.o)
 .bss           0x0080034f        0x0 contiki-micaz.a(mac.o)
 .bss           0x0080034f        0x2 contiki-micaz.a(framer-802154.o)
 .bss           0x00800351       0x38 contiki-micaz.a(process.o)
                0x00800351                process_list
                0x00800353                process_current
 .bss           0x00800389        0x0 contiki-micaz.a(autostart.o)
 .bss           0x00800389        0x8 contiki-micaz.a(compower.o)
 .bss           0x00800391        0x0 contiki-micaz.a(memb.o)
 .bss           0x00800391        0x0 contiki-micaz.a(timer.o)
 .bss           0x00800391        0x3 contiki-micaz.a(ctimer.o)
 .bss           0x00800394        0x0 contiki-micaz.a(energest.o)
 .bss           0x00800394        0x2 contiki-micaz.a(rtimer.o)
 .bss           0x00800396        0x0 contiki-micaz.a(random.o)
 .bss           0x00800396      0x65c contiki-micaz.a(queuebuf.o)
 .bss           0x008009f2        0x1 contiki-micaz.a(rs232.o)
 .bss           0x008009f3        0x0 contiki-micaz.a(leds-arch.o)
 .bss           0x008009f3        0x9 contiki-micaz.a(cc2420.o)
 .bss           0x008009fc        0x0 contiki-micaz.a(cc2420-arch.o)
 .bss           0x008009fc        0x0 contiki-micaz.a(rtimer-arch.o)
 .bss           0x008009fc        0x0 contiki-micaz.a(watchdog.o)
 .bss           0x008009fc        0x0 contiki-micaz.a(frame802154.o)
 .bss           0x008009fc        0x1 contiki-micaz.a(spi.o)
                0x008009fc                spi_busy
 .bss           0x008009fd        0x0 /usr/lib/gcc/avr/4.5.3/avr51/libgcc.a(_udivmodhi4.o)
 .bss           0x008009fd        0x0 /usr/lib/gcc/avr/4.5.3/avr51/libgcc.a(_exit.o)
 .bss           0x008009fd        0x0 /usr/lib/gcc/avr/4.5.3/avr51/libgcc.a(_copy_data.o)
 .bss           0x008009fd        0x0 /usr/lib/gcc/avr/4.5.3/avr51/libgcc.a(_clear_bss.o)
 .bss           0x008009fd        0x0 /usr/lib/gcc/avr/4.5.3/../../../avr/lib/avr51/libc.a(malloc.o)
 .bss           0x008009fd        0x0 /usr/lib/gcc/avr/4.5.3/../../../avr/lib/avr51/libc.a(rand.o)
 .bss           0x008009fd        0x0 /usr/lib/gcc/avr/4.5.3/../../../avr/lib/avr51/libc.a(memcpy.o)
 .bss           0x008009fd        0x0 /usr/lib/gcc/avr/4.5.3/../../../avr/lib/avr51/libc.a(memset.o)
 .bss           0x008009fd        0x0 /usr/lib/gcc/avr/4.5.3/../../../avr/lib/avr51/libc.a(iob.o)
 .bss           0x008009fd        0x0 /usr/lib/gcc/avr/4.5.3/../../../avr/lib/avr51/libc.a(printf.o)
 .bss           0x008009fd        0x0 /usr/lib/gcc/avr/4.5.3/../../../avr/lib/avr51/libc.a(printf_p.o)
 .bss           0x008009fd        0x0 /usr/lib/gcc/avr/4.5.3/../../../avr/lib/avr51/libc.a(vfprintf_std.o)
 .bss           0x008009fd        0x0 /usr/lib/gcc/avr/4.5.3/../../../avr/lib/avr51/libc.a(eerd_block_atmega128.o)
 .bss           0x008009fd        0x0 /usr/lib/gcc/avr/4.5.3/../../../avr/lib/avr51/libc.a(eewr_block_atmega128.o)
 .bss           0x008009fd        0x0 /usr/lib/gcc/avr/4.5.3/../../../avr/lib/avr51/libc.a(eewr_byte_atmega128.o)
 .bss           0x008009fd        0x0 /usr/lib/gcc/avr/4.5.3/../../../avr/lib/avr51/libc.a(strnlen_P.o)
 .bss           0x008009fd        0x0 /usr/lib/gcc/avr/4.5.3/../../../avr/lib/avr51/libc.a(strnlen.o)
 .bss           0x008009fd        0x0 /usr/lib/gcc/avr/4.5.3/../../../avr/lib/avr51/libc.a(fputc.o)
 .bss           0x008009fd        0x0 /usr/lib/gcc/avr/4.5.3/../../../avr/lib/avr51/libc.a(ultoa_invert.o)
 .bss           0x008009fd        0x0 /usr/lib/gcc/avr/4.5.3/avr51/libgcc.a(_mulsi3.o)
 .bss           0x008009fd        0x0 /usr/lib/gcc/avr/4.5.3/avr51/libgcc.a(_divmodsi4.o)
 .bss           0x008009fd        0x0 /usr/lib/gcc/avr/4.5.3/avr51/libgcc.a(_udivmodsi4.o)
 *(.bss*)
 *(COMMON)
 COMMON         0x008009fd       0x38 contiki-micaz.a(packetbuf.o)
                0x008009fd                packetbuf_addrs
                0x00800a05                packetbuf_attrs
 COMMON         0x00800a35        0x8 contiki-micaz.a(ds2401.o)
                0x00800a35                ds2401_id
 COMMON         0x00800a3d        0x2 contiki-micaz.a(rimeaddr.o)
                0x00800a3d                rimeaddr_node_addr
 COMMON         0x00800a3f       0x48 contiki-micaz.a(rimestats.o)
                0x00800a3f                rimestats
 COMMON         0x00800a87        0x1 contiki-micaz.a(process.o)
                0x00800a87                process_maxevents
 COMMON         0x00800a88        0x8 contiki-micaz.a(compower.o)
                0x00800a88                compower_idle_activity
 COMMON         0x00800a90        0x4 contiki-micaz.a(rs232.o)
                0x00800a90                input_handler_1
                0x00800a92                input_handler_0
 COMMON         0x00800a94       0x11 contiki-micaz.a(cc2420.o)
                0x00800a94                cc2420_last_rssi
                0x00800a95                cc2420_packets_read
                0x00800a97                cc2420_packets_seen
                0x00800a99                cc2420_sfd_start_time
                0x00800a9b                cc2420_time_of_departure
                0x00800a9d                cc2420_time_of_arrival
                0x00800a9f                cc2420_last_correlation
                0x00800aa0                cc2420_authority_level_of_sender
                0x00800aa2                cc2420_sfd_counter
                0x00800aa3                cc2420_sfd_end_time
 COMMON         0x00800aa5        0x4 /usr/lib/gcc/avr/4.5.3/../../../avr/lib/avr51/libc.a(malloc.o)
                0x00800aa5                __brkval
                0x00800aa7                __flp
 COMMON         0x00800aa9        0x6 /usr/lib/gcc/avr/4.5.3/../../../avr/lib/avr51/libc.a(iob.o)
                0x00800aa9                __iob
                0x00800aaf                PROVIDE (__bss_end, .)
                0x000053d6                __data_load_start = LOADADDR (.data)
                0x000054c6                __data_load_end = (__data_load_start + SIZEOF (.data))

.noinit         0x00800aaf        0x0
                0x00800aaf                PROVIDE (__noinit_start, .)
 *(.noinit*)
                0x00800aaf                PROVIDE (__noinit_end, .)
                0x00800aaf                _end = .
                0x00800aaf                PROVIDE (__heap_start, .)

.eeprom         0x00810000        0x0
 *(.eeprom*)
                0x00810000                __eeprom_end = .

.fuse
 *(.fuse)
 *(.lfuse)
 *(.hfuse)
 *(.efuse)

.lock
 *(.lock*)

.signature
 *(.signature*)

.stab           0x00000000     0x2b68
 *(.stab)
 .stab          0x00000000      0x6cc /usr/lib/gcc/avr/4.5.3/../../../avr/lib/avr51/crtm128.o
 .stab          0x000006cc      0x750 /usr/lib/gcc/avr/4.5.3/../../../avr/lib/avr51/libc.a(malloc.o)
                                0x75c (size before relaxing)
 .stab          0x00000e1c      0x2d0 /usr/lib/gcc/avr/4.5.3/../../../avr/lib/avr51/libc.a(rand.o)
                                0x330 (size before relaxing)
 .stab          0x000010ec       0x84 /usr/lib/gcc/avr/4.5.3/../../../avr/lib/avr51/libc.a(memcpy.o)
                                 0x90 (size before relaxing)
 .stab          0x00001170       0x6c /usr/lib/gcc/avr/4.5.3/../../../avr/lib/avr51/libc.a(memset.o)
                                 0x78 (size before relaxing)
 .stab          0x000011dc      0x180 /usr/lib/gcc/avr/4.5.3/../../../avr/lib/avr51/libc.a(iob.o)
                                0x30c (size before relaxing)
 .stab          0x0000135c      0x18c /usr/lib/gcc/avr/4.5.3/../../../avr/lib/avr51/libc.a(printf.o)
                                0x36c (size before relaxing)
 .stab          0x000014e8      0x1a4 /usr/lib/gcc/avr/4.5.3/../../../avr/lib/avr51/libc.a(printf_p.o)
                                0x384 (size before relaxing)
 .stab          0x0000168c      0xac8 /usr/lib/gcc/avr/4.5.3/../../../avr/lib/avr51/libc.a(vfprintf_std.o)
                                0xcd8 (size before relaxing)
 .stab          0x00002154      0x108 /usr/lib/gcc/avr/4.5.3/../../../avr/lib/avr51/libc.a(eerd_block_atmega128.o)
                                0x114 (size before relaxing)
 .stab          0x0000225c       0x9c /usr/lib/gcc/avr/4.5.3/../../../avr/lib/avr51/libc.a(eewr_block_atmega128.o)
                                 0xa8 (size before relaxing)
 .stab          0x000022f8       0xd8 /usr/lib/gcc/avr/4.5.3/../../../avr/lib/avr51/libc.a(eewr_byte_atmega128.o)
                                 0xe4 (size before relaxing)
 .stab          0x000023d0       0x9c /usr/lib/gcc/avr/4.5.3/../../../avr/lib/avr51/libc.a(strnlen_P.o)
                                 0xa8 (size before relaxing)
 .stab          0x0000246c       0x9c /usr/lib/gcc/avr/4.5.3/../../../avr/lib/avr51/libc.a(strnlen.o)
                                 0xa8 (size before relaxing)
 .stab          0x00002508      0x1e0 /usr/lib/gcc/avr/4.5.3/../../../avr/lib/avr51/libc.a(fputc.o)
                                0x3c0 (size before relaxing)
 .stab          0x000026e8      0x480 /usr/lib/gcc/avr/4.5.3/../../../avr/lib/avr51/libc.a(ultoa_invert.o)
                                0x48c (size before relaxing)

.stabstr        0x00000000      0xfe5
 *(.stabstr)
 .stabstr       0x00000000      0xfe5 /usr/lib/gcc/avr/4.5.3/../../../avr/lib/avr51/crtm128.o

.stab.excl
 *(.stab.excl)

.stab.exclstr
 *(.stab.exclstr)

.stab.index
 *(.stab.index)

.stab.indexstr
 *(.stab.indexstr)

.comment
 *(.comment)

.debug
 *(.debug)

.line
 *(.line)

.debug_srcinfo
 *(.debug_srcinfo)

.debug_sfnames
 *(.debug_sfnames)

.debug_aranges  0x00000000      0x560
 *(.debug_aranges)
 .debug_aranges
                0x00000000       0x20 attilio_send.co
 .debug_aranges
                0x00000020       0x20 contiki-micaz.a(broadcast.o)
 .debug_aranges
                0x00000040       0x20 contiki-micaz.a(abc.o)
 .debug_aranges
                0x00000060       0x20 contiki-micaz.a(channel.o)
 .debug_aranges
                0x00000080       0x20 contiki-micaz.a(list.o)
 .debug_aranges
                0x000000a0       0x20 contiki-micaz.a(etimer.o)
 .debug_aranges
                0x000000c0       0x20 contiki-micaz.a(packetbuf.o)
 .debug_aranges
                0x000000e0       0x20 contiki-micaz.a(contiki-micaz-m)
 .debug_aranges
                0x00000100       0x20 contiki-micaz.a(init-net.o)
 .debug_aranges
                0x00000120       0x20 contiki-micaz.a(node-id.o)
 .debug_aranges
                0x00000140       0x20 contiki-micaz.a(clock.o)
 .debug_aranges
                0x00000160       0x20 contiki-micaz.a(ds2401.o)
 .debug_aranges
                0x00000180       0x20 contiki-micaz.a(packages.o)
 .debug_aranges
                0x000001a0       0x20 contiki-micaz.a(eeprom.o)
 .debug_aranges
                0x000001c0       0x20 contiki-micaz.a(leds.o)
 .debug_aranges
                0x000001e0       0x20 contiki-micaz.a(rimeaddr.o)
 .debug_aranges
                0x00000200       0x20 contiki-micaz.a(rime.o)
 .debug_aranges
                0x00000220       0x20 contiki-micaz.a(announcement.o)
 .debug_aranges
                0x00000240       0x20 contiki-micaz.a(broadcast-annou)
 .debug_aranges
                0x00000260       0x20 contiki-micaz.a(chameleon.o)
 .debug_aranges
                0x00000280       0x20 contiki-micaz.a(chameleon-bitop)
 .debug_aranges
                0x000002a0       0x20 contiki-micaz.a(cxmac.o)
 .debug_aranges
                0x000002c0       0x20 contiki-micaz.a(nullmac.o)
 .debug_aranges
                0x000002e0       0x20 contiki-micaz.a(mac.o)
 .debug_aranges
                0x00000300       0x20 contiki-micaz.a(framer-802154.o)
 .debug_aranges
                0x00000320       0x20 contiki-micaz.a(process.o)
 .debug_aranges
                0x00000340       0x20 contiki-micaz.a(autostart.o)
 .debug_aranges
                0x00000360       0x20 contiki-micaz.a(compower.o)
 .debug_aranges
                0x00000380       0x20 contiki-micaz.a(memb.o)
 .debug_aranges
                0x000003a0       0x20 contiki-micaz.a(timer.o)
 .debug_aranges
                0x000003c0       0x20 contiki-micaz.a(ctimer.o)
 .debug_aranges
                0x000003e0       0x20 contiki-micaz.a(energest.o)
 .debug_aranges
                0x00000400       0x20 contiki-micaz.a(rtimer.o)
 .debug_aranges
                0x00000420       0x20 contiki-micaz.a(random.o)
 .debug_aranges
                0x00000440       0x20 contiki-micaz.a(queuebuf.o)
 .debug_aranges
                0x00000460       0x20 contiki-micaz.a(rs232.o)
 .debug_aranges
                0x00000480       0x20 contiki-micaz.a(leds-arch.o)
 .debug_aranges
                0x000004a0       0x20 contiki-micaz.a(cc2420.o)
 .debug_aranges
                0x000004c0       0x20 contiki-micaz.a(cc2420-arch.o)
 .debug_aranges
                0x000004e0       0x20 contiki-micaz.a(rtimer-arch.o)
 .debug_aranges
                0x00000500       0x20 contiki-micaz.a(watchdog.o)
 .debug_aranges
                0x00000520       0x20 contiki-micaz.a(frame802154.o)
 .debug_aranges
                0x00000540       0x20 contiki-micaz.a(spi.o)

.debug_pubnames
                0x00000000     0x1623
 *(.debug_pubnames)
 .debug_pubnames
                0x00000000       0x48 attilio_send.co
 .debug_pubnames
                0x00000048       0x30 symbols.o
 .debug_pubnames
                0x00000078       0x4c contiki-micaz.a(broadcast.o)
 .debug_pubnames
                0x000000c4       0x55 contiki-micaz.a(abc.o)
 .debug_pubnames
                0x00000119       0x74 contiki-micaz.a(channel.o)
 .debug_pubnames
                0x0000018d       0xc3 contiki-micaz.a(list.o)
 .debug_pubnames
                0x00000250      0x109 contiki-micaz.a(etimer.o)
 .debug_pubnames
                0x00000359      0x22c contiki-micaz.a(packetbuf.o)
 .debug_pubnames
                0x00000585       0x2a contiki-micaz.a(contiki-micaz-m)
 .debug_pubnames
                0x000005af       0x1f contiki-micaz.a(init-net.o)
 .debug_pubnames
                0x000005ce       0x43 contiki-micaz.a(node-id.o)
 .debug_pubnames
                0x00000611       0x87 contiki-micaz.a(clock.o)
 .debug_pubnames
                0x00000698       0x30 contiki-micaz.a(ds2401.o)
 .debug_pubnames
                0x000006c8       0x6d contiki-micaz.a(packages.o)
 .debug_pubnames
                0x00000735       0x33 contiki-micaz.a(eeprom.o)
 .debug_pubnames
                0x00000768       0x75 contiki-micaz.a(leds.o)
 .debug_pubnames
                0x000007dd       0x79 contiki-micaz.a(rimeaddr.o)
 .debug_pubnames
                0x00000856       0x5f contiki-micaz.a(rime.o)
 .debug_pubnames
                0x000008b5       0x20 contiki-micaz.a(rimestats.o)
 .debug_pubnames
                0x000008d5      0x144 contiki-micaz.a(announcement.o)
 .debug_pubnames
                0x00000a19       0x7d contiki-micaz.a(broadcast-annou)
 .debug_pubnames
                0x00000a96       0x64 contiki-micaz.a(chameleon.o)
 .debug_pubnames
                0x00000afa       0x6b contiki-micaz.a(chameleon-bitop)
 .debug_pubnames
                0x00000b65       0x6c contiki-micaz.a(cxmac.o)
 .debug_pubnames
                0x00000bd1       0x25 contiki-micaz.a(nullmac.o)
 .debug_pubnames
                0x00000bf6       0x2d contiki-micaz.a(mac.o)
 .debug_pubnames
                0x00000c23       0x24 contiki-micaz.a(framer-802154.o)
 .debug_pubnames
                0x00000c47      0x10d contiki-micaz.a(process.o)
 .debug_pubnames
                0x00000d54       0x39 contiki-micaz.a(autostart.o)
 .debug_pubnames
                0x00000d8d       0x9e contiki-micaz.a(compower.o)
 .debug_pubnames
                0x00000e2b       0x4d contiki-micaz.a(memb.o)
 .debug_pubnames
                0x00000e78       0x68 contiki-micaz.a(timer.o)
 .debug_pubnames
                0x00000ee0       0x8b contiki-micaz.a(ctimer.o)
 .debug_pubnames
                0x00000f6b       0x64 contiki-micaz.a(energest.o)
 .debug_pubnames
                0x00000fcf       0x45 contiki-micaz.a(rtimer.o)
 .debug_pubnames
                0x00001014       0x32 contiki-micaz.a(random.o)
 .debug_pubnames
                0x00001046       0xff contiki-micaz.a(queuebuf.o)
 .debug_pubnames
                0x00001145       0xe4 contiki-micaz.a(rs232.o)
 .debug_pubnames
                0x00001229       0x49 contiki-micaz.a(leds-arch.o)
 .debug_pubnames
                0x00001272      0x236 contiki-micaz.a(cc2420.o)
 .debug_pubnames
                0x000014a8       0x36 contiki-micaz.a(cc2420-arch.o)
 .debug_pubnames
                0x000014de       0x50 contiki-micaz.a(rtimer-arch.o)
 .debug_pubnames
                0x0000152e       0x73 contiki-micaz.a(watchdog.o)
 .debug_pubnames
                0x000015a1       0x56 contiki-micaz.a(frame802154.o)
 .debug_pubnames
                0x000015f7       0x2c contiki-micaz.a(spi.o)

.debug_info     0x00000000     0xb380
 *(.debug_info)
 .debug_info    0x00000000      0x61d attilio_send.co
 .debug_info    0x0000061d       0xaf symbols.o
 .debug_info    0x000006cc      0x589 contiki-micaz.a(broadcast.o)
 .debug_info    0x00000c55      0x454 contiki-micaz.a(abc.o)
 .debug_info    0x000010a9      0x2f2 contiki-micaz.a(channel.o)
 .debug_info    0x0000139b      0x349 contiki-micaz.a(list.o)
 .debug_info    0x000016e4      0x4d2 contiki-micaz.a(etimer.o)
 .debug_info    0x00001bb6      0x629 contiki-micaz.a(packetbuf.o)
 .debug_info    0x000021df      0x2c2 contiki-micaz.a(contiki-micaz-m)
 .debug_info    0x000024a1      0x487 contiki-micaz.a(init-net.o)
 .debug_info    0x00002928      0x149 contiki-micaz.a(node-id.o)
 .debug_info    0x00002a71      0x1f1 contiki-micaz.a(clock.o)
 .debug_info    0x00002c62      0x365 contiki-micaz.a(ds2401.o)
 .debug_info    0x00002fc7      0x56f contiki-micaz.a(packages.o)
 .debug_info    0x00003536      0x11d contiki-micaz.a(eeprom.o)
 .debug_info    0x00003653      0x1ca contiki-micaz.a(leds.o)
 .debug_info    0x0000381d      0x1ed contiki-micaz.a(rimeaddr.o)
 .debug_info    0x00003a0a      0x60f contiki-micaz.a(rime.o)
 .debug_info    0x00004019      0x146 contiki-micaz.a(rimestats.o)
 .debug_info    0x0000415f      0x3ed contiki-micaz.a(announcement.o)
 .debug_info    0x0000454c      0x858 contiki-micaz.a(broadcast-annou)
 .debug_info    0x00004da4      0x424 contiki-micaz.a(chameleon.o)
 .debug_info    0x000051c8      0x7c7 contiki-micaz.a(chameleon-bitop)
 .debug_info    0x0000598f     0x10bc contiki-micaz.a(cxmac.o)
 .debug_info    0x00006a4b      0x44a contiki-micaz.a(nullmac.o)
 .debug_info    0x00006e95      0x114 contiki-micaz.a(mac.o)
 .debug_info    0x00006fa9      0x657 contiki-micaz.a(framer-802154.o)
 .debug_info    0x00007600      0x574 contiki-micaz.a(process.o)
 .debug_info    0x00007b74      0x19f contiki-micaz.a(autostart.o)
 .debug_info    0x00007d13      0x46a contiki-micaz.a(compower.o)
 .debug_info    0x0000817d      0x1ad contiki-micaz.a(memb.o)
 .debug_info    0x0000832a      0x184 contiki-micaz.a(timer.o)
 .debug_info    0x000084ae      0x46c contiki-micaz.a(ctimer.o)
 .debug_info    0x0000891a      0x103 contiki-micaz.a(energest.o)
 .debug_info    0x00008a1d      0x1be contiki-micaz.a(rtimer.o)
 .debug_info    0x00008bdb       0xa7 contiki-micaz.a(random.o)
 .debug_info    0x00008c82      0x6e6 contiki-micaz.a(queuebuf.o)
 .debug_info    0x00009368      0x3b6 contiki-micaz.a(rs232.o)
 .debug_info    0x0000971e       0xc1 contiki-micaz.a(leds-arch.o)
 .debug_info    0x000097df     0x131e contiki-micaz.a(cc2420.o)
 .debug_info    0x0000aafd      0x16e contiki-micaz.a(cc2420-arch.o)
 .debug_info    0x0000ac6b       0xf9 contiki-micaz.a(rtimer-arch.o)
 .debug_info    0x0000ad64       0xdd contiki-micaz.a(watchdog.o)
 .debug_info    0x0000ae41      0x4a8 contiki-micaz.a(frame802154.o)
 .debug_info    0x0000b2e9       0x97 contiki-micaz.a(spi.o)
 *(.gnu.linkonce.wi.*)

.debug_abbrev   0x00000000     0x4194
 *(.debug_abbrev)
 .debug_abbrev  0x00000000      0x23e attilio_send.co
 .debug_abbrev  0x0000023e       0x82 symbols.o
 .debug_abbrev  0x000002c0      0x1e7 contiki-micaz.a(broadcast.o)
 .debug_abbrev  0x000004a7      0x182 contiki-micaz.a(abc.o)
 .debug_abbrev  0x00000629      0x169 contiki-micaz.a(channel.o)
 .debug_abbrev  0x00000792      0x13a contiki-micaz.a(list.o)
 .debug_abbrev  0x000008cc      0x20b contiki-micaz.a(etimer.o)
 .debug_abbrev  0x00000ad7      0x22b contiki-micaz.a(packetbuf.o)
 .debug_abbrev  0x00000d02      0x137 contiki-micaz.a(contiki-micaz-m)
 .debug_abbrev  0x00000e39      0x1a2 contiki-micaz.a(init-net.o)
 .debug_abbrev  0x00000fdb       0xcc contiki-micaz.a(node-id.o)
 .debug_abbrev  0x000010a7       0xe4 contiki-micaz.a(clock.o)
 .debug_abbrev  0x0000118b      0x196 contiki-micaz.a(ds2401.o)
 .debug_abbrev  0x00001321      0x20c contiki-micaz.a(packages.o)
 .debug_abbrev  0x0000152d       0x8a contiki-micaz.a(eeprom.o)
 .debug_abbrev  0x000015b7       0xd4 contiki-micaz.a(leds.o)
 .debug_abbrev  0x0000168b      0x17d contiki-micaz.a(rimeaddr.o)
 .debug_abbrev  0x00001808      0x1fb contiki-micaz.a(rime.o)
 .debug_abbrev  0x00001a03       0x5d contiki-micaz.a(rimestats.o)
 .debug_abbrev  0x00001a60      0x16a contiki-micaz.a(announcement.o)
 .debug_abbrev  0x00001bca      0x22e contiki-micaz.a(broadcast-annou)
 .debug_abbrev  0x00001df8      0x1cc contiki-micaz.a(chameleon.o)
 .debug_abbrev  0x00001fc4      0x264 contiki-micaz.a(chameleon-bitop)
 .debug_abbrev  0x00002228      0x3b6 contiki-micaz.a(cxmac.o)
 .debug_abbrev  0x000025de      0x1d4 contiki-micaz.a(nullmac.o)
 .debug_abbrev  0x000027b2       0xa0 contiki-micaz.a(mac.o)
 .debug_abbrev  0x00002852      0x227 contiki-micaz.a(framer-802154.o)
 .debug_abbrev  0x00002a79      0x2df contiki-micaz.a(process.o)
 .debug_abbrev  0x00002d58       0xf5 contiki-micaz.a(autostart.o)
 .debug_abbrev  0x00002e4d      0x203 contiki-micaz.a(compower.o)
 .debug_abbrev  0x00003050       0xea contiki-micaz.a(memb.o)
 .debug_abbrev  0x0000313a       0xd2 contiki-micaz.a(timer.o)
 .debug_abbrev  0x0000320c      0x1b5 contiki-micaz.a(ctimer.o)
 .debug_abbrev  0x000033c1       0x8d contiki-micaz.a(energest.o)
 .debug_abbrev  0x0000344e      0x12a contiki-micaz.a(rtimer.o)
 .debug_abbrev  0x00003578       0x67 contiki-micaz.a(random.o)
 .debug_abbrev  0x000035df      0x1f3 contiki-micaz.a(queuebuf.o)
 .debug_abbrev  0x000037d2      0x186 contiki-micaz.a(rs232.o)
 .debug_abbrev  0x00003958       0x87 contiki-micaz.a(leds-arch.o)
 .debug_abbrev  0x000039df      0x412 contiki-micaz.a(cc2420.o)
 .debug_abbrev  0x00003df1       0xc8 contiki-micaz.a(cc2420-arch.o)
 .debug_abbrev  0x00003eb9       0x96 contiki-micaz.a(rtimer-arch.o)
 .debug_abbrev  0x00003f4f       0x4c contiki-micaz.a(watchdog.o)
 .debug_abbrev  0x00003f9b      0x19c contiki-micaz.a(frame802154.o)
 .debug_abbrev  0x00004137       0x5d contiki-micaz.a(spi.o)

.debug_line     0x00000000     0x6ac8
 *(.debug_line)
 .debug_line    0x00000000      0x273 attilio_send.co
 .debug_line    0x00000273       0x6a symbols.o
 .debug_line    0x000002dd      0x19e contiki-micaz.a(broadcast.o)
 .debug_line    0x0000047b      0x181 contiki-micaz.a(abc.o)
 .debug_line    0x000005fc      0x1a2 contiki-micaz.a(channel.o)
 .debug_line    0x0000079e      0x2b8 contiki-micaz.a(list.o)
 .debug_line    0x00000a56      0x3e1 contiki-micaz.a(etimer.o)
 .debug_line    0x00000e37      0x3d6 contiki-micaz.a(packetbuf.o)
 .debug_line    0x0000120d      0x228 contiki-micaz.a(contiki-micaz-m)
 .debug_line    0x00001435      0x216 contiki-micaz.a(init-net.o)
 .debug_line    0x0000164b      0x12f contiki-micaz.a(node-id.o)
 .debug_line    0x0000177a      0x21e contiki-micaz.a(clock.o)
 .debug_line    0x00001998      0x2d5 contiki-micaz.a(ds2401.o)
 .debug_line    0x00001c6d      0x265 contiki-micaz.a(packages.o)
 .debug_line    0x00001ed2       0xef contiki-micaz.a(eeprom.o)
 .debug_line    0x00001fc1      0x151 contiki-micaz.a(leds.o)
 .debug_line    0x00002112       0xf8 contiki-micaz.a(rimeaddr.o)
 .debug_line    0x0000220a      0x274 contiki-micaz.a(rime.o)
 .debug_line    0x0000247e       0x70 contiki-micaz.a(rimestats.o)
 .debug_line    0x000024ee      0x25d contiki-micaz.a(announcement.o)
 .debug_line    0x0000274b      0x33e contiki-micaz.a(broadcast-annou)
 .debug_line    0x00002a89      0x189 contiki-micaz.a(chameleon.o)
 .debug_line    0x00002c12      0x459 contiki-micaz.a(chameleon-bitop)
 .debug_line    0x0000306b      0x95e contiki-micaz.a(cxmac.o)
 .debug_line    0x000039c9      0x187 contiki-micaz.a(nullmac.o)
 .debug_line    0x00003b50       0x7b contiki-micaz.a(mac.o)
 .debug_line    0x00003bcb      0x2e9 contiki-micaz.a(framer-802154.o)
 .debug_line    0x00003eb4      0x44e contiki-micaz.a(process.o)
 .debug_line    0x00004302       0xe0 contiki-micaz.a(autostart.o)
 .debug_line    0x000043e2      0x1d2 contiki-micaz.a(compower.o)
 .debug_line    0x000045b4      0x15b contiki-micaz.a(memb.o)
 .debug_line    0x0000470f      0x113 contiki-micaz.a(timer.o)
 .debug_line    0x00004822      0x323 contiki-micaz.a(ctimer.o)
 .debug_line    0x00004b45       0x9b contiki-micaz.a(energest.o)
 .debug_line    0x00004be0       0xf5 contiki-micaz.a(rtimer.o)
 .debug_line    0x00004cd5       0x89 contiki-micaz.a(random.o)
 .debug_line    0x00004d5e      0x2d3 contiki-micaz.a(queuebuf.o)
 .debug_line    0x00005031      0x269 contiki-micaz.a(rs232.o)
 .debug_line    0x0000529a      0x126 contiki-micaz.a(leds-arch.o)
 .debug_line    0x000053c0      0xdf3 contiki-micaz.a(cc2420.o)
 .debug_line    0x000061b3      0x165 contiki-micaz.a(cc2420-arch.o)
 .debug_line    0x00006318      0x172 contiki-micaz.a(rtimer-arch.o)
 .debug_line    0x0000648a      0x114 contiki-micaz.a(watchdog.o)
 .debug_line    0x0000659e      0x46b contiki-micaz.a(frame802154.o)
 .debug_line    0x00006a09       0xbf contiki-micaz.a(spi.o)

.debug_frame    0x00000000     0x1360
 *(.debug_frame)
 .debug_frame   0x00000000       0x30 attilio_send.co
 .debug_frame   0x00000030       0x60 contiki-micaz.a(broadcast.o)
 .debug_frame   0x00000090       0x60 contiki-micaz.a(abc.o)
 .debug_frame   0x000000f0       0x60 contiki-micaz.a(channel.o)
 .debug_frame   0x00000150       0xd0 contiki-micaz.a(list.o)
 .debug_frame   0x00000220       0xf0 contiki-micaz.a(etimer.o)
 .debug_frame   0x00000310      0x160 contiki-micaz.a(packetbuf.o)
 .debug_frame   0x00000470       0x30 contiki-micaz.a(contiki-micaz-m)
 .debug_frame   0x000004a0       0x20 contiki-micaz.a(init-net.o)
 .debug_frame   0x000004c0       0x30 contiki-micaz.a(node-id.o)
 .debug_frame   0x000004f0       0x80 contiki-micaz.a(clock.o)
 .debug_frame   0x00000570       0x40 contiki-micaz.a(ds2401.o)
 .debug_frame   0x000005b0       0x50 contiki-micaz.a(packages.o)
 .debug_frame   0x00000600       0x30 contiki-micaz.a(eeprom.o)
 .debug_frame   0x00000630       0x90 contiki-micaz.a(leds.o)
 .debug_frame   0x000006c0       0x40 contiki-micaz.a(rimeaddr.o)
 .debug_frame   0x00000700       0x70 contiki-micaz.a(rime.o)
 .debug_frame   0x00000770       0xc0 contiki-micaz.a(announcement.o)
 .debug_frame   0x00000830       0xa0 contiki-micaz.a(broadcast-annou)
 .debug_frame   0x000008d0       0x50 contiki-micaz.a(chameleon.o)
 .debug_frame   0x00000920       0x80 contiki-micaz.a(chameleon-bitop)
 .debug_frame   0x000009a0       0xe0 contiki-micaz.a(cxmac.o)
 .debug_frame   0x00000a80       0x70 contiki-micaz.a(nullmac.o)
 .debug_frame   0x00000af0       0x20 contiki-micaz.a(mac.o)
 .debug_frame   0x00000b10       0x30 contiki-micaz.a(framer-802154.o)
 .debug_frame   0x00000b40       0xe0 contiki-micaz.a(process.o)
 .debug_frame   0x00000c20       0x30 contiki-micaz.a(autostart.o)
 .debug_frame   0x00000c50       0x60 contiki-micaz.a(compower.o)
 .debug_frame   0x00000cb0       0x50 contiki-micaz.a(memb.o)
 .debug_frame   0x00000d00       0x60 contiki-micaz.a(timer.o)
 .debug_frame   0x00000d60       0x80 contiki-micaz.a(ctimer.o)
 .debug_frame   0x00000de0       0x50 contiki-micaz.a(energest.o)
 .debug_frame   0x00000e30       0x40 contiki-micaz.a(rtimer.o)
 .debug_frame   0x00000e70       0x30 contiki-micaz.a(random.o)
 .debug_frame   0x00000ea0       0xb0 contiki-micaz.a(queuebuf.o)
 .debug_frame   0x00000f50       0xa0 contiki-micaz.a(rs232.o)
 .debug_frame   0x00000ff0       0x40 contiki-micaz.a(leds-arch.o)
 .debug_frame   0x00001030      0x1f0 contiki-micaz.a(cc2420.o)
 .debug_frame   0x00001220       0x30 contiki-micaz.a(cc2420-arch.o)
 .debug_frame   0x00001250       0x40 contiki-micaz.a(rtimer-arch.o)
 .debug_frame   0x00001290       0x60 contiki-micaz.a(watchdog.o)
 .debug_frame   0x000012f0       0x50 contiki-micaz.a(frame802154.o)
 .debug_frame   0x00001340       0x20 contiki-micaz.a(spi.o)

.debug_str      0x00000000     0x2c6b
 *(.debug_str)
 .debug_str     0x00000000      0x28c attilio_send.co
                                0x350 (size before relaxing)
 .debug_str     0x0000028c       0x20 symbols.o
                                 0x83 (size before relaxing)
 .debug_str     0x000002ac      0x368 contiki-micaz.a(broadcast.o)
                                0x53d (size before relaxing)
 .debug_str     0x00000614       0x49 contiki-micaz.a(abc.o)
                                0x4ce (size before relaxing)
 .debug_str     0x0000065d       0x92 contiki-micaz.a(channel.o)
                                0x207 (size before relaxing)
 .debug_str     0x000006ef       0xa8 contiki-micaz.a(list.o)
                                0x109 (size before relaxing)
 .debug_str     0x00000797      0x143 contiki-micaz.a(etimer.o)
                                0x2a6 (size before relaxing)
 .debug_str     0x000008da      0x1ed contiki-micaz.a(packetbuf.o)
                                0x61c (size before relaxing)
 .debug_str     0x00000ac7       0x5a contiki-micaz.a(contiki-micaz-m)
                                0x1f2 (size before relaxing)
 .debug_str     0x00000b21       0xe5 contiki-micaz.a(init-net.o)
                                0x22b (size before relaxing)
 .debug_str     0x00000c06       0x62 contiki-micaz.a(node-id.o)
                                0x142 (size before relaxing)
 .debug_str     0x00000c68       0x81 contiki-micaz.a(clock.o)
                                0x16f (size before relaxing)
 .debug_str     0x00000ce9       0x72 contiki-micaz.a(ds2401.o)
                                0x162 (size before relaxing)
 .debug_str     0x00000d5b       0x80 contiki-micaz.a(packages.o)
                                0x2bd (size before relaxing)
 .debug_str     0x00000ddb       0x29 contiki-micaz.a(eeprom.o)
                                0x122 (size before relaxing)
 .debug_str     0x00000e04       0x74 contiki-micaz.a(leds.o)
                                0x140 (size before relaxing)
 .debug_str     0x00000e78       0x5d contiki-micaz.a(rimeaddr.o)
                                0x156 (size before relaxing)
 .debug_str     0x00000ed5      0x16a contiki-micaz.a(rime.o)
                                0x37c (size before relaxing)
 .debug_str     0x0000103f       0x20 contiki-micaz.a(rimestats.o)
                                0x10b (size before relaxing)
 .debug_str     0x0000105f      0x19f contiki-micaz.a(announcement.o)
                                0x2e1 (size before relaxing)
 .debug_str     0x000011fe      0x187 contiki-micaz.a(broadcast-annou)
                                0x434 (size before relaxing)
 .debug_str     0x00001385       0x97 contiki-micaz.a(chameleon.o)
                                0x4e5 (size before relaxing)
 .debug_str     0x0000141c       0xc4 contiki-micaz.a(chameleon-bitop)
                                0x57c (size before relaxing)
 .debug_str     0x000014e0      0x370 contiki-micaz.a(cxmac.o)
                                0xa44 (size before relaxing)
 .debug_str     0x00001850       0x2a contiki-micaz.a(nullmac.o)
                                0x223 (size before relaxing)
 .debug_str     0x0000187a       0x30 contiki-micaz.a(mac.o)
                                0x16b (size before relaxing)
 .debug_str     0x000018aa      0x1b3 contiki-micaz.a(framer-802154.o)
                                0x62b (size before relaxing)
 .debug_str     0x00001a5d      0x15f contiki-micaz.a(process.o)
                                0x299 (size before relaxing)
 .debug_str     0x00001bbc       0x3a contiki-micaz.a(autostart.o)
                                0x151 (size before relaxing)
 .debug_str     0x00001bf6      0x1b8 contiki-micaz.a(compower.o)
                                0x60e (size before relaxing)
 .debug_str     0x00001dae       0x46 contiki-micaz.a(memb.o)
                                0x11b (size before relaxing)
 .debug_str     0x00001df4       0x27 contiki-micaz.a(timer.o)
                                0x140 (size before relaxing)
 .debug_str     0x00001e1b       0xad contiki-micaz.a(ctimer.o)
                                0x23a (size before relaxing)
 .debug_str     0x00001ec8       0x5c contiki-micaz.a(energest.o)
                                0x121 (size before relaxing)
 .debug_str     0x00001f24       0xb8 contiki-micaz.a(rtimer.o)
                                0x198 (size before relaxing)
 .debug_str     0x00001fdc       0x35 contiki-micaz.a(random.o)
                                 0xf5 (size before relaxing)
 .debug_str     0x00002011      0x18a contiki-micaz.a(queuebuf.o)
                                0x5ea (size before relaxing)
 .debug_str     0x0000219b      0x10a contiki-micaz.a(rs232.o)
                                0x1ed (size before relaxing)
 .debug_str     0x000022a5       0x50 contiki-micaz.a(leds-arch.o)
                                0x11d (size before relaxing)
 .debug_str     0x000022f5      0x789 contiki-micaz.a(cc2420.o)
                                0xded (size before relaxing)
 .debug_str     0x00002a7e       0x43 contiki-micaz.a(cc2420-arch.o)
                                0x178 (size before relaxing)
 .debug_str     0x00002ac1       0x50 contiki-micaz.a(rtimer-arch.o)
                                0x13a (size before relaxing)
 .debug_str     0x00002b11       0x68 contiki-micaz.a(watchdog.o)
                                0x126 (size before relaxing)
 .debug_str     0x00002b79       0xca contiki-micaz.a(frame802154.o)
                                0x314 (size before relaxing)
 .debug_str     0x00002c43       0x28 contiki-micaz.a(spi.o)
                                 0xf0 (size before relaxing)

.debug_loc      0x00000000     0x4685
 *(.debug_loc)
 .debug_loc     0x00000000       0xbb attilio_send.co
 .debug_loc     0x000000bb      0x158 contiki-micaz.a(broadcast.o)
 .debug_loc     0x00000213      0x138 contiki-micaz.a(abc.o)
 .debug_loc     0x0000034b      0x12c contiki-micaz.a(channel.o)
 .debug_loc     0x00000477      0x41c contiki-micaz.a(list.o)
 .debug_loc     0x00000893      0x42e contiki-micaz.a(etimer.o)
 .debug_loc     0x00000cc1      0x217 contiki-micaz.a(packetbuf.o)
 .debug_loc     0x00000ed8       0x5c contiki-micaz.a(init-net.o)
 .debug_loc     0x00000f34       0x63 contiki-micaz.a(node-id.o)
 .debug_loc     0x00000f97       0x68 contiki-micaz.a(clock.o)
 .debug_loc     0x00000fff      0x2bb contiki-micaz.a(ds2401.o)
 .debug_loc     0x000012ba      0x13f contiki-micaz.a(packages.o)
 .debug_loc     0x000013f9       0xd0 contiki-micaz.a(eeprom.o)
 .debug_loc     0x000014c9       0xbe contiki-micaz.a(leds.o)
 .debug_loc     0x00001587      0x118 contiki-micaz.a(rimeaddr.o)
 .debug_loc     0x0000169f      0x168 contiki-micaz.a(rime.o)
 .debug_loc     0x00001807      0x224 contiki-micaz.a(announcement.o)
 .debug_loc     0x00001a2b      0x26b contiki-micaz.a(broadcast-annou)
 .debug_loc     0x00001c96       0xd4 contiki-micaz.a(chameleon.o)
 .debug_loc     0x00001d6a      0x688 contiki-micaz.a(chameleon-bitop)
 .debug_loc     0x000023f2      0x7ae contiki-micaz.a(cxmac.o)
 .debug_loc     0x00002ba0       0x48 contiki-micaz.a(nullmac.o)
 .debug_loc     0x00002be8       0x90 contiki-micaz.a(mac.o)
 .debug_loc     0x00002c78       0xd1 contiki-micaz.a(framer-802154.o)
 .debug_loc     0x00002d49      0x38f contiki-micaz.a(process.o)
 .debug_loc     0x000030d8       0x58 contiki-micaz.a(autostart.o)
 .debug_loc     0x00003130       0xac contiki-micaz.a(compower.o)
 .debug_loc     0x000031dc      0x1b0 contiki-micaz.a(memb.o)
 .debug_loc     0x0000338c      0x10c contiki-micaz.a(timer.o)
 .debug_loc     0x00003498      0x311 contiki-micaz.a(ctimer.o)
 .debug_loc     0x000037a9       0xc7 contiki-micaz.a(rtimer.o)
 .debug_loc     0x00003870       0x18 contiki-micaz.a(random.o)
 .debug_loc     0x00003888      0x203 contiki-micaz.a(queuebuf.o)
 .debug_loc     0x00003a8b      0x123 contiki-micaz.a(rs232.o)
 .debug_loc     0x00003bae      0x7a0 contiki-micaz.a(cc2420.o)
 .debug_loc     0x0000434e       0x24 contiki-micaz.a(rtimer-arch.o)
 .debug_loc     0x00004372      0x313 contiki-micaz.a(frame802154.o)

.debug_macinfo
 *(.debug_macinfo)
OUTPUT(attilio_send.elf elf32-avr)
LOAD linker stubs

.bootloader     0x0001f800        0x0

.debug_pubtypes
                0x00000000     0x1751
 .debug_pubtypes
                0x00000000      0x16c attilio_send.co
 .debug_pubtypes
                0x0000016c       0x1e symbols.o
 .debug_pubtypes
                0x0000018a       0xe2 contiki-micaz.a(broadcast.o)
 .debug_pubtypes
                0x0000026c       0xb7 contiki-micaz.a(abc.o)
 .debug_pubtypes
                0x00000323       0xa3 contiki-micaz.a(channel.o)
 .debug_pubtypes
                0x000003c6       0x26 contiki-micaz.a(list.o)
 .debug_pubtypes
                0x000003ec       0x7b contiki-micaz.a(etimer.o)
 .debug_pubtypes
                0x00000467       0x75 contiki-micaz.a(packetbuf.o)
 .debug_pubtypes
                0x000004dc       0xac contiki-micaz.a(contiki-micaz-m)
 .debug_pubtypes
                0x00000588       0x8f contiki-micaz.a(init-net.o)
 .debug_pubtypes
                0x00000617       0x2b contiki-micaz.a(node-id.o)
 .debug_pubtypes
                0x00000642       0x2f contiki-micaz.a(clock.o)
 .debug_pubtypes
                0x00000671       0x2b contiki-micaz.a(ds2401.o)
 .debug_pubtypes
                0x0000069c      0x103 contiki-micaz.a(packages.o)
 .debug_pubtypes
                0x0000079f       0x3d contiki-micaz.a(eeprom.o)
 .debug_pubtypes
                0x000007dc       0x12 contiki-micaz.a(leds.o)
 .debug_pubtypes
                0x000007ee       0x2d contiki-micaz.a(rimeaddr.o)
 .debug_pubtypes
                0x0000081b       0xf7 contiki-micaz.a(rime.o)
 .debug_pubtypes
                0x00000912       0x20 contiki-micaz.a(rimestats.o)
 .debug_pubtypes
                0x00000932       0x8c contiki-micaz.a(announcement.o)
 .debug_pubtypes
                0x000009be      0x1cf contiki-micaz.a(broadcast-annou)
 .debug_pubtypes
                0x00000b8d       0xad contiki-micaz.a(chameleon.o)
 .debug_pubtypes
                0x00000c3a       0xbc contiki-micaz.a(chameleon-bitop)
 .debug_pubtypes
                0x00000cf6      0x1cc contiki-micaz.a(cxmac.o)
 .debug_pubtypes
                0x00000ec2       0xbe contiki-micaz.a(nullmac.o)
 .debug_pubtypes
                0x00000f80       0x25 contiki-micaz.a(mac.o)
 .debug_pubtypes
                0x00000fa5       0xe5 contiki-micaz.a(framer-802154.o)
 .debug_pubtypes
                0x0000108a       0x7d contiki-micaz.a(process.o)
 .debug_pubtypes
                0x00001107       0x55 contiki-micaz.a(autostart.o)
 .debug_pubtypes
                0x0000115c       0xaa contiki-micaz.a(compower.o)
 .debug_pubtypes
                0x00001206       0x1b contiki-micaz.a(memb.o)
 .debug_pubtypes
                0x00001221       0x2d contiki-micaz.a(timer.o)
 .debug_pubtypes
                0x0000124e       0x91 contiki-micaz.a(ctimer.o)
 .debug_pubtypes
                0x000012df       0x12 contiki-micaz.a(energest.o)
 .debug_pubtypes
                0x000012f1       0x46 contiki-micaz.a(rtimer.o)
 .debug_pubtypes
                0x00001337       0x12 contiki-micaz.a(random.o)
 .debug_pubtypes
                0x00001349       0xae contiki-micaz.a(queuebuf.o)
 .debug_pubtypes
                0x000013f7       0x29 contiki-micaz.a(rs232.o)
 .debug_pubtypes
                0x00001420       0x1e contiki-micaz.a(leds-arch.o)
 .debug_pubtypes
                0x0000143e      0x165 contiki-micaz.a(cc2420.o)
 .debug_pubtypes
                0x000015a3       0x75 contiki-micaz.a(cc2420-arch.o)
 .debug_pubtypes
                0x00001618       0x3e contiki-micaz.a(rtimer-arch.o)
 .debug_pubtypes
                0x00001656       0x2b contiki-micaz.a(watchdog.o)
 .debug_pubtypes
                0x00001681       0xb2 contiki-micaz.a(frame802154.o)
 .debug_pubtypes
                0x00001733       0x1e contiki-micaz.a(spi.o)

.debug_ranges   0x00000000      0x198
 .debug_ranges  0x00000000       0xa8 contiki-micaz.a(ds2401.o)
 .debug_ranges  0x000000a8       0x48 contiki-micaz.a(chameleon-bitop)
 .debug_ranges  0x000000f0       0x90 contiki-micaz.a(cxmac.o)
 .debug_ranges  0x00000180       0x18 contiki-micaz.a(cc2420.o)
